; Function Attrs: nounwind uwtable
define internal range(i32 0, 23) i32 @arenas_create_ctl(ptr noundef %0, ptr readnone captures(none) %1, i64 %2, ptr noundef writeonly captures(address_is_null) %3, ptr noundef captures(address_is_null) %4, ptr noundef readonly captures(address_is_null) %5, i64 noundef %6) #0 {
  %8 = alloca i32, align 4
  %9 = alloca %struct.arena_config_s, align 8
  call void @llvm.lifetime.start.p0(i64 4, ptr nonnull %8)
  %10 = tail call i32 @pthread_mutex_trylock(ptr noundef nonnull getelementptr inbounds nuw (i8, ptr @ctl_mtx, i64 72)) #15
  %.not.i = icmp eq i32 %10, 0
  br i1 %.not.i, label %malloc_mutex_trylock_final.exit.i, label %11

malloc_mutex_trylock_final.exit.i:                ; preds = %7
  store atomic i8 1, ptr getelementptr inbounds nuw (i8, ptr @ctl_mtx, i64 64) monotonic, align 8
  br label %12

11:                                               ; preds = %7
  tail call void @je_malloc_mutex_lock_slow(ptr noundef nonnull @ctl_mtx) #15
  br label %12

12:                                               ; preds = %11, %malloc_mutex_trylock_final.exit.i
  %13 = load i64, ptr getelementptr inbounds nuw (i8, ptr @ctl_mtx, i64 56), align 8, !tbaa !17
  %14 = add i64 %13, 1
  store i64 %14, ptr getelementptr inbounds nuw (i8, ptr @ctl_mtx, i64 56), align 8, !tbaa !17
  %15 = load ptr, ptr getelementptr inbounds nuw (i8, ptr @ctl_mtx, i64 48), align 8, !tbaa !23
  %.not.i.i = icmp eq ptr %15, %0
  br i1 %.not.i.i, label %malloc_mutex_lock.exit, label %16

16:                                               ; preds = %12
  store ptr %0, ptr getelementptr inbounds nuw (i8, ptr @ctl_mtx, i64 48), align 8, !tbaa !23
  %17 = load i64, ptr getelementptr inbounds nuw (i8, ptr @ctl_mtx, i64 40), align 8, !tbaa !24
  %18 = add i64 %17, 1
  store i64 %18, ptr getelementptr inbounds nuw (i8, ptr @ctl_mtx, i64 40), align 8, !tbaa !24
  br label %malloc_mutex_lock.exit

malloc_mutex_lock.exit:                           ; preds = %12, %16
  %19 = icmp eq ptr %3, null
  %20 = icmp eq ptr %4, null
  %or.cond = or i1 %19, %20
  br i1 %or.cond, label %23, label %21

21:                                               ; preds = %malloc_mutex_lock.exit
  %22 = load i64, ptr %4, align 8, !tbaa !4
  %.not = icmp eq i64 %22, 4
  br i1 %.not, label %24, label %.thread

23:                                               ; preds = %malloc_mutex_lock.exit
  br i1 %20, label %35, label %.thread

.thread:                                          ; preds = %21, %23
  store i64 0, ptr %4, align 8, !tbaa !4
  br label %35

24:                                               ; preds = %21
  call void @llvm.memcpy.p0.p0.i64(ptr noundef nonnull align 8 dereferenceable(16) %9, ptr noundef nonnull align 8 dereferenceable(16) @je_arena_config_default, i64 16, i1 false), !tbaa.struct !225
  %.not33 = icmp eq ptr %5, null
  br i1 %.not33, label %28, label %25

25:                                               ; preds = %24
  %.not34 = icmp eq i64 %6, 8
  br i1 %.not34, label %26, label %35

26:                                               ; preds = %25
  %27 = load ptr, ptr %5, align 8, !tbaa !223
  store ptr %27, ptr %9, align 8, !tbaa !226
  br label %28

28:                                               ; preds = %26, %24
  %29 = call fastcc i32 @ctl_arena_init(ptr noundef %0, ptr noundef %9)
  store i32 %29, ptr %8, align 4, !tbaa !96
  %30 = icmp eq i32 %29, -1
  br i1 %30, label %35, label %31

31:                                               ; preds = %28
  %32 = load i64, ptr %4, align 8, !tbaa !4
  %.not35 = icmp eq i64 %32, 4
  br i1 %.not35, label %34, label %33

33:                                               ; preds = %31
  %spec.select = call i64 @llvm.umin.i64(i64 %32, i64 4)
  call void @llvm.memcpy.p0.p0.i64(ptr nonnull align 1 %3, ptr nonnull align 4 %8, i64 %spec.select, i1 false)
  store i64 %spec.select, ptr %4, align 8, !tbaa !4
  br label %35

34:                                               ; preds = %31
  store i32 %29, ptr %3, align 4, !tbaa !96
  br label %35

35:                                               ; preds = %28, %25, %23, %.thread, %33, %34
  %.027 = phi i32 [ 22, %33 ], [ 0, %34 ], [ 22, %.thread ], [ 22, %23 ], [ 22, %25 ], [ 11, %28 ]
  store atomic i8 0, ptr getelementptr inbounds nuw (i8, ptr @ctl_mtx, i64 64) monotonic, align 8
  %36 = call i32 @pthread_mutex_unlock(ptr noundef nonnull getelementptr inbounds nuw (i8, ptr @ctl_mtx, i64 72)) #15
  call void @llvm.lifetime.end.p0(i64 4, ptr nonnull %8)
  ret i32 %.027
}